target datalayout = "e-m:e-p270:32:32-p271:32:32-p272:64:64-i64:64-i128:128-f80:128-n8:16:32:64-S128"
target triple = "x86_64-pc-linux-gnu"

%struct.Abc_Frame_t_ = type { ptr, ptr, ptr, ptr, ptr, ptr, ptr, ptr, ptr, ptr, i32, i32, i32, i32, i32, ptr, float, float, i32, i32, ptr, ptr, ptr, double, double, ptr, ptr, ptr, ptr, ptr, ptr, ptr, ptr, ptr, ptr, ptr, ptr, float, ptr, i32, ptr, ptr, ptr, ptr, ptr, i32, i32, i32, i32, i32, i32, ptr, ptr, ptr, ptr, ptr, ptr, i32, i32, ptr, ptr, ptr, ptr, ptr, ptr, ptr, ptr, ptr, ptr, ptr, ptr, ptr, ptr, ptr, ptr, ptr, ptr, ptr, ptr, ptr, ptr, ptr, ptr, ptr, ptr, ptr, ptr, ptr, ptr }

; Function Attrs: nounwind uwtable
define void @Abc_FrameSetSave2(ptr noundef %0) #0 {
  %2 = alloca ptr, align 8
  %3 = alloca ptr, align 8
  store ptr %0, ptr %2, align 8, !tbaa !55
  call void @llvm.lifetime.start.p0(i64 8, ptr %3) #10
  %4 = call ptr @Abc_FrameGetGlobalFrame()
  store ptr %4, ptr %3, align 8, !tbaa !3
  %5 = load ptr, ptr %3, align 8, !tbaa !3
  %6 = getelementptr inbounds nuw %struct.Abc_Frame_t_, ptr %5, i32 0, i32 64
  %7 = load ptr, ptr %6, align 8, !tbaa !95
  %8 = icmp ne ptr %7, null
  br i1 %8, label %9, label %13

9:                                                ; preds = %1
  %10 = load ptr, ptr %3, align 8, !tbaa !3
  %11 = getelementptr inbounds nuw %struct.Abc_Frame_t_, ptr %10, i32 0, i32 64
  %12 = load ptr, ptr %11, align 8, !tbaa !95
  call void @Aig_ManStop(ptr noundef %12)
  br label %13

13:                                               ; preds = %9, %1
  %14 = load ptr, ptr %2, align 8, !tbaa !55
  %15 = load ptr, ptr %3, align 8, !tbaa !3
  %16 = getelementptr inbounds nuw %struct.Abc_Frame_t_, ptr %15, i32 0, i32 64
  store ptr %14, ptr %16, align 8, !tbaa !95
  call void @llvm.lifetime.end.p0(i64 8, ptr %3) #10
  ret void
}