; Function Attrs: nounwind uwtable
define void @Abc_FrameSetSave2(ptr noundef %0) local_unnamed_addr #1 {
  %2 = tail call ptr @Abc_FrameGetGlobalFrame()
  %3 = getelementptr inbounds nuw i8, ptr %2, i64 448
  %4 = load ptr, ptr %3, align 8, !tbaa !90
  %.not = icmp eq ptr %4, null
  br i1 %.not, label %6, label %5

5:                                                ; preds = %1
  tail call void @Aig_ManStop(ptr noundef nonnull %4) #20
  br label %6

6:                                                ; preds = %5, %1
  store ptr %0, ptr %3, align 8, !tbaa !90
  ret void
}